target datalayout = "e-m:e-p270:32:32-p271:32:32-p272:64:64-i64:64-i128:128-f80:128-n8:16:32:64-S128"
target triple = "x86_64-pc-linux-gnu"

%class.markWord = type { i64 }

@.str.5 = private unnamed_addr constant [18 x i8] c" marked(0x%016lx)\00", align 1
@.str.6 = private unnamed_addr constant [20 x i8] c" monitor(0x%016lx)=\00", align 1
@.str.7 = private unnamed_addr constant [34 x i8] c"null (this should never be seen!)\00", align 1
@.str.8 = private unnamed_addr constant [18 x i8] c" locked(0x%016lx)\00", align 1
@.str.9 = private unnamed_addr constant [7 x i8] c" mark(\00", align 1
@.str.10 = private unnamed_addr constant [12 x i8] c"is_unlocked\00", align 1
@.str.11 = private unnamed_addr constant [9 x i8] c" no_hash\00", align 1
@.str.12 = private unnamed_addr constant [15 x i8] c" hash=0x%016lx\00", align 1
@.str.13 = private unnamed_addr constant [3 x i8] c"??\00", align 1
@.str.14 = private unnamed_addr constant [9 x i8] c" age=%d)\00", align 1

; Function Attrs: mustprogress nounwind uwtable
define linkonce_odr hidden noundef i64 @_Z9mask_bitsll(i64 noundef %0, i64 noundef %1) #1 comdat {
  %3 = alloca i64, align 8
  %4 = alloca i64, align 8
  store i64 %0, ptr %3, align 8
  store i64 %1, ptr %4, align 8
  %5 = load i64, ptr %3, align 8
  %6 = load i64, ptr %4, align 8
  %7 = and i64 %5, %6
  ret i64 %7
}

; Function Attrs: mustprogress nounwind uwtable
define linkonce_odr hidden noundef i32 @_ZNK8markWord3ageEv(ptr noundef nonnull align 8 dereferenceable(8) %0) #1 comdat align 2 {
  %2 = alloca ptr, align 8
  store ptr %0, ptr %2, align 8
  %3 = load ptr, ptr %2, align 8
  %4 = call noundef i64 @_ZNK8markWord5valueEv(ptr noundef nonnull align 8 dereferenceable(8) %3)
  %5 = lshr i64 %4, 3
  %6 = call noundef i64 @_Z9mask_bitsll(i64 noundef %5, i64 noundef 15)
  %7 = trunc i64 %6 to i32
  ret i32 %7
}

; Function Attrs: mustprogress nounwind uwtable
define linkonce_odr hidden noundef i64 @_ZNK8markWord4hashEv(ptr noundef nonnull align 8 dereferenceable(8) %0) #1 comdat align 2 {
  %2 = alloca ptr, align 8
  store ptr %0, ptr %2, align 8
  %3 = load ptr, ptr %2, align 8
  %4 = call noundef i64 @_ZNK8markWord5valueEv(ptr noundef nonnull align 8 dereferenceable(8) %3)
  %5 = lshr i64 %4, 8
  %6 = call noundef i64 @_Z9mask_bitsll(i64 noundef %5, i64 noundef 2147483647)
  ret i64 %6
}

; Function Attrs: mustprogress nounwind uwtable
define linkonce_odr hidden noundef zeroext i1 @_ZNK8markWord11has_no_hashEv(ptr noundef nonnull align 8 dereferenceable(8) %0) #1 comdat align 2 {
  %2 = alloca ptr, align 8
  store ptr %0, ptr %2, align 8
  %3 = load ptr, ptr %2, align 8
  %4 = call noundef i64 @_ZNK8markWord4hashEv(ptr noundef nonnull align 8 dereferenceable(8) %3)
  %5 = icmp eq i64 %4, 0
  ret i1 %5
}

; Function Attrs: mustprogress nounwind uwtable
define linkonce_odr hidden noundef zeroext i1 @_ZNK8markWord11is_unlockedEv(ptr noundef nonnull align 8 dereferenceable(8) %0) #1 comdat align 2 {
  %2 = alloca ptr, align 8
  store ptr %0, ptr %2, align 8
  %3 = load ptr, ptr %2, align 8
  %4 = call noundef i64 @_ZNK8markWord5valueEv(ptr noundef nonnull align 8 dereferenceable(8) %3)
  %5 = call noundef i64 @_Z9mask_bitsll(i64 noundef %4, i64 noundef 3)
  %6 = icmp eq i64 %5, 1
  ret i1 %6
}

; Function Attrs: mustprogress nounwind uwtable
define linkonce_odr hidden noundef zeroext i1 @_ZNK8markWord9is_lockedEv(ptr noundef nonnull align 8 dereferenceable(8) %0) #1 comdat align 2 {
  %2 = alloca ptr, align 8
  store ptr %0, ptr %2, align 8
  %3 = load ptr, ptr %2, align 8
  %4 = call noundef i64 @_ZNK8markWord5valueEv(ptr noundef nonnull align 8 dereferenceable(8) %3)
  %5 = call noundef i64 @_Z9mask_bitsll(i64 noundef %4, i64 noundef 3)
  %6 = icmp ne i64 %5, 1
  ret i1 %6
}

; Function Attrs: mustprogress nounwind uwtable
define linkonce_odr hidden noundef ptr @_ZNK8markWord7monitorEv(ptr noundef nonnull align 8 dereferenceable(8) %0) #1 comdat align 2 {
  %2 = alloca ptr, align 8
  store ptr %0, ptr %2, align 8
  %3 = load ptr, ptr %2, align 8
  %4 = call noundef i64 @_ZNK8markWord5valueEv(ptr noundef nonnull align 8 dereferenceable(8) %3)
  %5 = xor i64 %4, 2
  %6 = inttoptr i64 %5 to ptr
  ret ptr %6
}

; Function Attrs: mustprogress nounwind uwtable
define linkonce_odr hidden noundef zeroext i1 @_ZNK8markWord11has_monitorEv(ptr noundef nonnull align 8 dereferenceable(8) %0) #1 comdat align 2 {
  %2 = alloca ptr, align 8
  store ptr %0, ptr %2, align 8
  %3 = load ptr, ptr %2, align 8
  %4 = call noundef i64 @_ZNK8markWord5valueEv(ptr noundef nonnull align 8 dereferenceable(8) %3)
  %5 = and i64 %4, 3
  %6 = icmp eq i64 %5, 2
  ret i1 %6
}

; Function Attrs: mustprogress nounwind uwtable
define linkonce_odr hidden noundef i64 @_ZNK8markWord5valueEv(ptr noundef nonnull align 8 dereferenceable(8) %0) #1 comdat align 2 {
  %2 = alloca ptr, align 8
  store ptr %0, ptr %2, align 8
  %3 = load ptr, ptr %2, align 8
  %4 = getelementptr inbounds %class.markWord, ptr %3, i32 0, i32 0
  %5 = load i64, ptr %4, align 8
  ret i64 %5
}

; Function Attrs: mustprogress nounwind uwtable
define linkonce_odr hidden noundef zeroext i1 @_ZNK8markWord9is_markedEv(ptr noundef nonnull align 8 dereferenceable(8) %0) #1 comdat align 2 {
  %2 = alloca ptr, align 8
  store ptr %0, ptr %2, align 8
  %3 = load ptr, ptr %2, align 8
  %4 = call noundef i64 @_ZNK8markWord5valueEv(ptr noundef nonnull align 8 dereferenceable(8) %3)
  %5 = call noundef i64 @_Z9mask_bitsll(i64 noundef %4, i64 noundef 3)
  %6 = icmp eq i64 %5, 3
  ret i1 %6
}

; Function Attrs: mustprogress nounwind uwtable
define hidden void @_ZNK8markWord8print_onEP12outputStreamb(ptr noundef nonnull align 8 dereferenceable(8) %0, ptr noundef %1, i1 noundef zeroext %2) #1 align 2 {
  %4 = alloca ptr, align 8
  %5 = alloca ptr, align 8
  %6 = alloca i8, align 1
  %7 = alloca ptr, align 8
  store ptr %0, ptr %4, align 8
  store ptr %1, ptr %5, align 8
  %8 = zext i1 %2 to i8
  store i8 %8, ptr %6, align 1
  %9 = load ptr, ptr %4, align 8
  %10 = call noundef zeroext i1 @_ZNK8markWord9is_markedEv(ptr noundef nonnull align 8 dereferenceable(8) %9)
  br i1 %10, label %11, label %14

11:                                               ; preds = %3
  %12 = load ptr, ptr %5, align 8
  %13 = call noundef i64 @_ZNK8markWord5valueEv(ptr noundef nonnull align 8 dereferenceable(8) %9)
  call void (ptr, ptr, ...) @_ZN12outputStream5printEPKcz(ptr noundef nonnull align 8 dereferenceable(56) %12, ptr noundef @.str.5, i64 noundef %13)
  br label %56

14:                                               ; preds = %3
  %15 = call noundef zeroext i1 @_ZNK8markWord11has_monitorEv(ptr noundef nonnull align 8 dereferenceable(8) %9)
  br i1 %15, label %16, label %32

16:                                               ; preds = %14
  %17 = load ptr, ptr %5, align 8
  %18 = call noundef i64 @_ZNK8markWord5valueEv(ptr noundef nonnull align 8 dereferenceable(8) %9)
  call void (ptr, ptr, ...) @_ZN12outputStream5printEPKcz(ptr noundef nonnull align 8 dereferenceable(56) %17, ptr noundef @.str.6, i64 noundef %18)
  %19 = load i8, ptr %6, align 1
  %20 = trunc i8 %19 to i1
  br i1 %20, label %21, label %31

21:                                               ; preds = %16
  %22 = call noundef ptr @_ZNK8markWord7monitorEv(ptr noundef nonnull align 8 dereferenceable(8) %9)
  store ptr %22, ptr %7, align 8
  %23 = load ptr, ptr %7, align 8
  %24 = icmp eq ptr %23, null
  br i1 %24, label %25, label %27

25:                                               ; preds = %21
  %26 = load ptr, ptr %5, align 8
  call void (ptr, ptr, ...) @_ZN12outputStream5printEPKcz(ptr noundef nonnull align 8 dereferenceable(56) %26, ptr noundef @.str.7)
  br label %30

27:                                               ; preds = %21
  %28 = load ptr, ptr %7, align 8
  %29 = load ptr, ptr %5, align 8
  call void @_ZNK13ObjectMonitor8print_onEP12outputStream(ptr noundef nonnull align 8 dereferenceable(200) %28, ptr noundef %29)
  br label %30

30:                                               ; preds = %27, %25
  br label %31

31:                                               ; preds = %30, %16
  br label %55

32:                                               ; preds = %14
  %33 = call noundef zeroext i1 @_ZNK8markWord9is_lockedEv(ptr noundef nonnull align 8 dereferenceable(8) %9)
  br i1 %33, label %34, label %37

34:                                               ; preds = %32
  %35 = load ptr, ptr %5, align 8
  %36 = call noundef i64 @_ZNK8markWord5valueEv(ptr noundef nonnull align 8 dereferenceable(8) %9)
  call void (ptr, ptr, ...) @_ZN12outputStream5printEPKcz(ptr noundef nonnull align 8 dereferenceable(56) %35, ptr noundef @.str.8, i64 noundef %36)
  br label %54

37:                                               ; preds = %32
  %38 = load ptr, ptr %5, align 8
  call void (ptr, ptr, ...) @_ZN12outputStream5printEPKcz(ptr noundef nonnull align 8 dereferenceable(56) %38, ptr noundef @.str.9)
  %39 = call noundef zeroext i1 @_ZNK8markWord11is_unlockedEv(ptr noundef nonnull align 8 dereferenceable(8) %9)
  br i1 %39, label %40, label %49

40:                                               ; preds = %37
  %41 = load ptr, ptr %5, align 8
  call void (ptr, ptr, ...) @_ZN12outputStream5printEPKcz(ptr noundef nonnull align 8 dereferenceable(56) %41, ptr noundef @.str.10)
  %42 = call noundef zeroext i1 @_ZNK8markWord11has_no_hashEv(ptr noundef nonnull align 8 dereferenceable(8) %9)
  br i1 %42, label %43, label %45

43:                                               ; preds = %40
  %44 = load ptr, ptr %5, align 8
  call void (ptr, ptr, ...) @_ZN12outputStream5printEPKcz(ptr noundef nonnull align 8 dereferenceable(56) %44, ptr noundef @.str.11)
  br label %48

45:                                               ; preds = %40
  %46 = load ptr, ptr %5, align 8
  %47 = call noundef i64 @_ZNK8markWord4hashEv(ptr noundef nonnull align 8 dereferenceable(8) %9)
  call void (ptr, ptr, ...) @_ZN12outputStream5printEPKcz(ptr noundef nonnull align 8 dereferenceable(56) %46, ptr noundef @.str.12, i64 noundef %47)
  br label %48

48:                                               ; preds = %45, %43
  br label %51

49:                                               ; preds = %37
  %50 = load ptr, ptr %5, align 8
  call void (ptr, ptr, ...) @_ZN12outputStream5printEPKcz(ptr noundef nonnull align 8 dereferenceable(56) %50, ptr noundef @.str.13)
  br label %51

51:                                               ; preds = %49, %48
  %52 = load ptr, ptr %5, align 8
  %53 = call noundef i32 @_ZNK8markWord3ageEv(ptr noundef nonnull align 8 dereferenceable(8) %9)
  call void (ptr, ptr, ...) @_ZN12outputStream5printEPKcz(ptr noundef nonnull align 8 dereferenceable(56) %52, ptr noundef @.str.14, i32 noundef %53)
  br label %54

54:                                               ; preds = %51, %34
  br label %55

55:                                               ; preds = %54, %31
  br label %56

56:                                               ; preds = %55, %11
  ret void
}