; Function Attrs: mustprogress nounwind uwtable
define hidden void @_ZNK8markWord8print_onEP12outputStreamb(ptr nocapture noundef nonnull readonly align 8 dereferenceable(8) %0, ptr noundef %1, i1 noundef zeroext %2) local_unnamed_addr #0 align 2 {
  %4 = load i64, ptr %0, align 8
  %5 = and i64 %4, 3
  switch i64 %5, label %default.unreachable [
    i64 3, label %6
    i64 2, label %7
    i64 1, label %16
    i64 0, label %15
  ]

6:                                                ; preds = %3
  tail call void (ptr, ptr, ...) @_ZN12outputStream5printEPKcz(ptr noundef nonnull align 8 dereferenceable(56) %1, ptr noundef nonnull @.str.5, i64 noundef %4) #5
  br label %34

7:                                                ; preds = %3
  tail call void (ptr, ptr, ...) @_ZN12outputStream5printEPKcz(ptr noundef nonnull align 8 dereferenceable(56) %1, ptr noundef nonnull @.str.6, i64 noundef %4) #5
  br i1 %2, label %8, label %34

8:                                                ; preds = %7
  %9 = load i64, ptr %0, align 8
  %10 = icmp eq i64 %9, 2
  br i1 %10, label %11, label %12

11:                                               ; preds = %8
  tail call void (ptr, ptr, ...) @_ZN12outputStream5printEPKcz(ptr noundef nonnull align 8 dereferenceable(56) %1, ptr noundef nonnull @.str.7) #5
  br label %34

12:                                               ; preds = %8
  %13 = xor i64 %9, 2
  %14 = inttoptr i64 %13 to ptr
  tail call void @_ZNK13ObjectMonitor8print_onEP12outputStream(ptr noundef nonnull align 8 dereferenceable(200) %14, ptr noundef nonnull %1) #5
  br label %34

default.unreachable:                              ; preds = %3
  unreachable

15:                                               ; preds = %3
  tail call void (ptr, ptr, ...) @_ZN12outputStream5printEPKcz(ptr noundef nonnull align 8 dereferenceable(56) %1, ptr noundef nonnull @.str.8, i64 noundef %4) #5
  br label %34

16:                                               ; preds = %3
  tail call void (ptr, ptr, ...) @_ZN12outputStream5printEPKcz(ptr noundef nonnull align 8 dereferenceable(56) %1, ptr noundef nonnull @.str.9) #5
  %17 = load i64, ptr %0, align 8
  %18 = and i64 %17, 3
  %19 = icmp eq i64 %18, 1
  br i1 %19, label %20, label %28

20:                                               ; preds = %16
  tail call void (ptr, ptr, ...) @_ZN12outputStream5printEPKcz(ptr noundef nonnull align 8 dereferenceable(56) %1, ptr noundef nonnull @.str.10) #5
  %21 = load i64, ptr %0, align 8
  %22 = and i64 %21, 549755813632
  %23 = icmp eq i64 %22, 0
  br i1 %23, label %24, label %25

24:                                               ; preds = %20
  tail call void (ptr, ptr, ...) @_ZN12outputStream5printEPKcz(ptr noundef nonnull align 8 dereferenceable(56) %1, ptr noundef nonnull @.str.11) #5
  br label %29

25:                                               ; preds = %20
  %26 = lshr i64 %21, 8
  %27 = and i64 %26, 2147483647
  tail call void (ptr, ptr, ...) @_ZN12outputStream5printEPKcz(ptr noundef nonnull align 8 dereferenceable(56) %1, ptr noundef nonnull @.str.12, i64 noundef %27) #5
  br label %29

28:                                               ; preds = %16
  tail call void (ptr, ptr, ...) @_ZN12outputStream5printEPKcz(ptr noundef nonnull align 8 dereferenceable(56) %1, ptr noundef nonnull @.str.13) #5
  br label %29

29:                                               ; preds = %24, %25, %28
  %30 = load i64, ptr %0, align 8
  %31 = trunc i64 %30 to i32
  %32 = lshr i32 %31, 3
  %33 = and i32 %32, 15
  tail call void (ptr, ptr, ...) @_ZN12outputStream5printEPKcz(ptr noundef nonnull align 8 dereferenceable(56) %1, ptr noundef nonnull @.str.14, i32 noundef %33) #5
  br label %34

34:                                               ; preds = %11, %12, %7, %29, %15, %6
  ret void
}